target datalayout = "e-m:e-p270:32:32-p271:32:32-p272:64:64-i64:64-i128:128-f80:128-n8:16:32:64-S128"
target triple = "x86_64-pc-linux-gnu"

%struct.ImVec2 = type { float, float }
%struct.ImGuiSizeCallbackData = type { ptr, %struct.ImVec2, %struct.ImVec2, %struct.ImVec2 }

; Function Attrs: mustprogress nounwind uwtable
define linkonce_odr void @_ZN6ImVec2C2Eff(ptr noundef nonnull align 4 dereferenceable(8) %0, float noundef %1, float noundef %2) unnamed_addr #3 comdat align 2 {
  %4 = alloca ptr, align 8
  %5 = alloca float, align 4
  %6 = alloca float, align 4
  store ptr %0, ptr %4, align 8, !tbaa !184
  store float %1, ptr %5, align 4, !tbaa !83
  store float %2, ptr %6, align 4, !tbaa !83
  %7 = load ptr, ptr %4, align 8
  %8 = getelementptr inbounds nuw %struct.ImVec2, ptr %7, i32 0, i32 0
  %9 = load float, ptr %5, align 4, !tbaa !83
  store float %9, ptr %8, align 4, !tbaa !89
  %10 = getelementptr inbounds nuw %struct.ImVec2, ptr %7, i32 0, i32 1
  %11 = load float, ptr %6, align 4, !tbaa !83
  store float %11, ptr %10, align 4, !tbaa !90
  ret void
}

; Function Attrs: mustprogress uwtable
define internal void @_ZZL31ShowExampleAppConstrainedResizePbEN17CustomConstraints4StepEP21ImGuiSizeCallbackData(ptr noundef %0) #0 align 2 {
  %2 = alloca ptr, align 8
  %3 = alloca float, align 4
  %4 = alloca %struct.ImVec2, align 4
  store ptr %0, ptr %2, align 8, !tbaa !637
  call void @llvm.lifetime.start.p0(i64 4, ptr %3) #2
  %5 = load ptr, ptr %2, align 8, !tbaa !637
  %6 = getelementptr inbounds nuw %struct.ImGuiSizeCallbackData, ptr %5, i32 0, i32 0
  %7 = load ptr, ptr %6, align 8, !tbaa !639
  %8 = load float, ptr %7, align 4, !tbaa !83
  store float %8, ptr %3, align 4, !tbaa !83
  call void @llvm.lifetime.start.p0(i64 8, ptr %4) #2
  %9 = load ptr, ptr %2, align 8, !tbaa !637
  %10 = getelementptr inbounds nuw %struct.ImGuiSizeCallbackData, ptr %9, i32 0, i32 3
  %11 = getelementptr inbounds nuw %struct.ImVec2, ptr %10, i32 0, i32 0
  %12 = load float, ptr %11, align 8, !tbaa !641
  %13 = load float, ptr %3, align 4, !tbaa !83
  %14 = fdiv float %12, %13
  %15 = fadd float %14, 5.000000e-01
  %16 = fptosi float %15 to i32
  %17 = sitofp i32 %16 to float
  %18 = load float, ptr %3, align 4, !tbaa !83
  %19 = fmul float %17, %18
  %20 = load ptr, ptr %2, align 8, !tbaa !637
  %21 = getelementptr inbounds nuw %struct.ImGuiSizeCallbackData, ptr %20, i32 0, i32 3
  %22 = getelementptr inbounds nuw %struct.ImVec2, ptr %21, i32 0, i32 1
  %23 = load float, ptr %22, align 4, !tbaa !642
  %24 = load float, ptr %3, align 4, !tbaa !83
  %25 = fdiv float %23, %24
  %26 = fadd float %25, 5.000000e-01
  %27 = fptosi float %26 to i32
  %28 = sitofp i32 %27 to float
  %29 = load float, ptr %3, align 4, !tbaa !83
  %30 = fmul float %28, %29
  call void @_ZN6ImVec2C2Eff(ptr noundef nonnull align 4 dereferenceable(8) %4, float noundef %19, float noundef %30)
  %31 = load ptr, ptr %2, align 8, !tbaa !637
  %32 = getelementptr inbounds nuw %struct.ImGuiSizeCallbackData, ptr %31, i32 0, i32 3
  call void @llvm.memcpy.p0.p0.i64(ptr align 8 %32, ptr align 4 %4, i64 8, i1 false), !tbaa.struct !97
  call void @llvm.lifetime.end.p0(i64 8, ptr %4) #2
  call void @llvm.lifetime.end.p0(i64 4, ptr %3) #2
  ret void
}